target datalayout = "e-m:e-p270:32:32-p271:32:32-p272:64:64-i64:64-i128:128-f80:128-n8:16:32:64-S128"
target triple = "x86_64-pc-linux-gnu"

%struct.SDL_GUID = type { [16 x i8] }
%struct.SDL_VirtualJoystickDesc = type { i32, i16, i16, i16, i16, i16, i16, i16, i16, i16, i16, [2 x i16], i32, i32, ptr, ptr, ptr, ptr, ptr, ptr, ptr, ptr, ptr, ptr, ptr, ptr }
%struct.joystick_hwdata = type { i32, i8, ptr, i32, %struct.SDL_GUID, %struct.SDL_VirtualJoystickDesc, i32, ptr, ptr, ptr, ptr, ptr, ptr, i8, i32, i32, ptr, ptr, ptr }

@g_VJoys = internal global ptr null, align 8

; Function Attrs: nounwind uwtable
define internal ptr @VIRTUAL_HWDataForIndex(i32 noundef %0) #0 {
  %2 = alloca i32, align 4
  %3 = alloca ptr, align 8
  store i32 %0, ptr %2, align 4
  call void @llvm.lifetime.start.p0(i64 8, ptr %3) #7
  call void @SDL_AssertJoysticksLocked()
  %4 = load ptr, ptr @g_VJoys, align 8
  store ptr %4, ptr %3, align 8
  br label %5

5:                                                ; preds = %15, %1
  %6 = load ptr, ptr %3, align 8
  %7 = icmp ne ptr %6, null
  br i1 %7, label %8, label %19

8:                                                ; preds = %5
  %9 = load i32, ptr %2, align 4
  %10 = icmp eq i32 %9, 0
  br i1 %10, label %11, label %12

11:                                               ; preds = %8
  br label %19

12:                                               ; preds = %8
  %13 = load i32, ptr %2, align 4
  %14 = add nsw i32 %13, -1
  store i32 %14, ptr %2, align 4
  br label %15

15:                                               ; preds = %12
  %16 = load ptr, ptr %3, align 8
  %17 = getelementptr inbounds nuw %struct.joystick_hwdata, ptr %16, i32 0, i32 18
  %18 = load ptr, ptr %17, align 8
  store ptr %18, ptr %3, align 8
  br label %5, !llvm.loop !25

19:                                               ; preds = %11, %5
  %20 = load ptr, ptr %3, align 8
  call void @llvm.lifetime.end.p0(i64 8, ptr %3) #7
  ret ptr %20
}

; Function Attrs: nounwind uwtable
define internal void @VIRTUAL_JoystickSetDevicePlayerIndex(i32 noundef %0, i32 noundef %1) #0 {
  %3 = alloca i32, align 4
  %4 = alloca i32, align 4
  %5 = alloca ptr, align 8
  store i32 %0, ptr %3, align 4
  store i32 %1, ptr %4, align 4
  call void @llvm.lifetime.start.p0(i64 8, ptr %5) #7
  %6 = load i32, ptr %3, align 4
  %7 = call ptr @VIRTUAL_HWDataForIndex(i32 noundef %6)
  store ptr %7, ptr %5, align 8
  %8 = load ptr, ptr %5, align 8
  %9 = icmp ne ptr %8, null
  br i1 %9, label %10, label %26

10:                                               ; preds = %2
  %11 = load ptr, ptr %5, align 8
  %12 = getelementptr inbounds nuw %struct.joystick_hwdata, ptr %11, i32 0, i32 5
  %13 = getelementptr inbounds nuw %struct.SDL_VirtualJoystickDesc, ptr %12, i32 0, i32 19
  %14 = load ptr, ptr %13, align 8
  %15 = icmp ne ptr %14, null
  br i1 %15, label %16, label %26

16:                                               ; preds = %10
  %17 = load ptr, ptr %5, align 8
  %18 = getelementptr inbounds nuw %struct.joystick_hwdata, ptr %17, i32 0, i32 5
  %19 = getelementptr inbounds nuw %struct.SDL_VirtualJoystickDesc, ptr %18, i32 0, i32 19
  %20 = load ptr, ptr %19, align 8
  %21 = load ptr, ptr %5, align 8
  %22 = getelementptr inbounds nuw %struct.joystick_hwdata, ptr %21, i32 0, i32 5
  %23 = getelementptr inbounds nuw %struct.SDL_VirtualJoystickDesc, ptr %22, i32 0, i32 17
  %24 = load ptr, ptr %23, align 8
  %25 = load i32, ptr %4, align 4
  call void %20(ptr noundef %24, i32 noundef %25)
  br label %26

26:                                               ; preds = %16, %10, %2
  call void @llvm.lifetime.end.p0(i64 8, ptr %5) #7
  ret void
}