; Function Attrs: nounwind uwtable
define internal void @VIRTUAL_JoystickSetDevicePlayerIndex(i32 noundef %0, i32 noundef %1) #0 {
  tail call void @SDL_AssertJoysticksLocked() #8
  %.06.i = load ptr, ptr @g_VJoys, align 8
  %3 = icmp eq ptr %.06.i, null
  %4 = icmp eq i32 %0, 0
  %or.cond7.i = or i1 %4, %3
  br i1 %or.cond7.i, label %VIRTUAL_HWDataForIndex.exit, label %.lr.ph.i

.lr.ph.i:                                         ; preds = %2, %.lr.ph.i
  %.09.i = phi ptr [ %.0.i, %.lr.ph.i ], [ %.06.i, %2 ]
  %.058.i = phi i32 [ %5, %.lr.ph.i ], [ %0, %2 ]
  %5 = add nsw i32 %.058.i, -1
  %6 = getelementptr inbounds nuw i8, ptr %.09.i, i64 264
  %.0.i = load ptr, ptr %6, align 8
  %7 = icmp eq ptr %.0.i, null
  %8 = icmp eq i32 %5, 0
  %or.cond.i = select i1 %7, i1 true, i1 %8
  br i1 %or.cond.i, label %VIRTUAL_HWDataForIndex.exit, label %.lr.ph.i, !llvm.loop !13

VIRTUAL_HWDataForIndex.exit:                      ; preds = %.lr.ph.i, %2
  %.0.lcssa.i = phi ptr [ %.06.i, %2 ], [ %.0.i, %.lr.ph.i ]
  %.not = icmp eq ptr %.0.lcssa.i, null
  br i1 %.not, label %15, label %9

9:                                                ; preds = %VIRTUAL_HWDataForIndex.exit
  %10 = getelementptr inbounds nuw i8, ptr %.0.lcssa.i, i64 120
  %11 = load ptr, ptr %10, align 8
  %.not6 = icmp eq ptr %11, null
  br i1 %.not6, label %15, label %12

12:                                               ; preds = %9
  %13 = getelementptr inbounds nuw i8, ptr %.0.lcssa.i, i64 104
  %14 = load ptr, ptr %13, align 8
  tail call void %11(ptr noundef %14, i32 noundef %1) #8
  br label %15

15:                                               ; preds = %12, %9, %VIRTUAL_HWDataForIndex.exit
  ret void
}